target datalayout = "e-m:e-p270:32:32-p271:32:32-p272:64:64-i64:64-i128:128-f80:128-n8:16:32:64-S128"
target triple = "x86_64-pc-linux-gnu"

; Function Attrs: mustprogress nounwind uwtable
define dso_local noundef float @_ZN4pbrt14FresnelMoment1Ef(float noundef %0) #3 {
  %2 = alloca float, align 4
  %3 = alloca float, align 4
  %4 = alloca float, align 4
  %5 = alloca float, align 4
  %6 = alloca float, align 4
  %7 = alloca float, align 4
  %8 = alloca i32, align 4
  store float %0, ptr %3, align 4, !tbaa !9
  call void @llvm.lifetime.start.p0(i64 4, ptr %4) #12
  %9 = load float, ptr %3, align 4, !tbaa !9
  %10 = load float, ptr %3, align 4, !tbaa !9
  %11 = fmul float %9, %10
  store float %11, ptr %4, align 4, !tbaa !9
  call void @llvm.lifetime.start.p0(i64 4, ptr %5) #12
  %12 = load float, ptr %4, align 4, !tbaa !9
  %13 = load float, ptr %3, align 4, !tbaa !9
  %14 = fmul float %12, %13
  store float %14, ptr %5, align 4, !tbaa !9
  call void @llvm.lifetime.start.p0(i64 4, ptr %6) #12
  %15 = load float, ptr %5, align 4, !tbaa !9
  %16 = load float, ptr %3, align 4, !tbaa !9
  %17 = fmul float %15, %16
  store float %17, ptr %6, align 4, !tbaa !9
  call void @llvm.lifetime.start.p0(i64 4, ptr %7) #12
  %18 = load float, ptr %6, align 4, !tbaa !9
  %19 = load float, ptr %3, align 4, !tbaa !9
  %20 = fmul float %18, %19
  store float %20, ptr %7, align 4, !tbaa !9
  %21 = load float, ptr %3, align 4, !tbaa !9
  %22 = fcmp olt float %21, 1.000000e+00
  br i1 %22, label %23, label %44

23:                                               ; preds = %1
  %24 = load float, ptr %3, align 4, !tbaa !9
  %25 = fmul float 0x3FFBD59B40000000, %24
  %26 = fsub float 0x3FDD6B11C0000000, %25
  %27 = load float, ptr %4, align 4, !tbaa !9
  %28 = fmul float 0x400B0370C0000000, %27
  %29 = fadd float %26, %28
  %30 = fpext float %29 to double
  %31 = load float, ptr %5, align 4, !tbaa !9
  %32 = fpext float %31 to double
  %33 = fmul double 0x400F3D53CDDD6E05, %32
  %34 = fsub double %30, %33
  %35 = load float, ptr %6, align 4, !tbaa !9
  %36 = fmul float 0x4003F13160000000, %35
  %37 = fpext float %36 to double
  %38 = fadd double %34, %37
  %39 = load float, ptr %7, align 4, !tbaa !9
  %40 = fmul float 0x3FE5E6AFC0000000, %39
  %41 = fpext float %40 to double
  %42 = fsub double %38, %41
  %43 = fptrunc double %42 to float
  store float %43, ptr %2, align 4
  store i32 1, ptr %8, align 4
  br label %60

44:                                               ; preds = %1
  %45 = load float, ptr %3, align 4, !tbaa !9
  %46 = fmul float 0x40263A29C0000000, %45
  %47 = fadd float 0xC01277AA20000000, %46
  %48 = load float, ptr %4, align 4, !tbaa !9
  %49 = fmul float 0x4024EDE000000000, %48
  %50 = fsub float %47, %49
  %51 = load float, ptr %5, align 4, !tbaa !9
  %52 = fmul float 0x4014754CA0000000, %51
  %53 = fadd float %50, %52
  %54 = load float, ptr %6, align 4, !tbaa !9
  %55 = fmul float 0x3FF45A07C0000000, %54
  %56 = fsub float %53, %55
  %57 = load float, ptr %7, align 4, !tbaa !9
  %58 = fmul float 0x3FC0509C00000000, %57
  %59 = fadd float %56, %58
  store float %59, ptr %2, align 4
  store i32 1, ptr %8, align 4
  br label %60

60:                                               ; preds = %44, %23
  call void @llvm.lifetime.end.p0(i64 4, ptr %7) #12
  call void @llvm.lifetime.end.p0(i64 4, ptr %6) #12
  call void @llvm.lifetime.end.p0(i64 4, ptr %5) #12
  call void @llvm.lifetime.end.p0(i64 4, ptr %4) #12
  %61 = load float, ptr %2, align 4
  ret float %61
}