; Function Attrs: mustprogress nofree norecurse nosync nounwind willreturn memory(none) uwtable
define dso_local noundef float @_ZN4pbrt14FresnelMoment1Ef(float noundef %0) local_unnamed_addr #0 {
  %2 = fmul float %0, %0
  %3 = fmul float %0, %2
  %4 = fmul float %0, %3
  %5 = fmul float %0, %4
  %6 = fcmp olt float %0, 1.000000e+00
  br i1 %6, label %7, label %23

7:                                                ; preds = %1
  %8 = fmul float %0, 0x3FFBD59B40000000
  %9 = fsub float 0x3FDD6B11C0000000, %8
  %10 = fmul float %2, 0x400B0370C0000000
  %11 = fadd float %9, %10
  %12 = fpext float %11 to double
  %13 = fpext float %3 to double
  %14 = fmul double %13, 0x400F3D53CDDD6E05
  %15 = fsub double %12, %14
  %16 = fmul float %4, 0x4003F13160000000
  %17 = fpext float %16 to double
  %18 = fadd double %15, %17
  %19 = fmul float %5, 0x3FE5E6AFC0000000
  %20 = fpext float %19 to double
  %21 = fsub double %18, %20
  %22 = fptrunc double %21 to float
  br label %34

23:                                               ; preds = %1
  %24 = fmul float %0, 0x40263A29C0000000
  %25 = fadd float %24, 0xC01277AA20000000
  %26 = fmul float %2, 0x4024EDE000000000
  %27 = fsub float %25, %26
  %28 = fmul float %3, 0x4014754CA0000000
  %29 = fadd float %27, %28
  %30 = fmul float %4, 0x3FF45A07C0000000
  %31 = fsub float %29, %30
  %32 = fmul float %5, 0x3FC0509C00000000
  %33 = fadd float %31, %32
  br label %34

34:                                               ; preds = %23, %7
  %.0 = phi float [ %22, %7 ], [ %33, %23 ]
  ret float %.0
}